target datalayout = "e-m:e-p270:32:32-p271:32:32-p272:64:64-i64:64-i128:128-f80:128-n8:16:32:64-S128"
target triple = "x86_64-pc-linux-gnu"

; Function Attrs: mustprogress nounwind uwtable
define noundef float @_Z4riseiPKiPA3_f(i32 noundef %0, ptr noundef %1, ptr noundef %2) #2 {
  %4 = alloca i32, align 4
  %5 = alloca ptr, align 8
  %6 = alloca ptr, align 8
  %7 = alloca float, align 4
  %8 = alloca float, align 4
  %9 = alloca float, align 4
  %10 = alloca i32, align 4
  %11 = alloca i32, align 4
  store i32 %0, ptr %4, align 4, !tbaa !4
  store ptr %1, ptr %5, align 8, !tbaa !26
  store ptr %2, ptr %6, align 8, !tbaa !28
  call void @llvm.lifetime.start.p0(i64 4, ptr %7) #14
  call void @llvm.lifetime.start.p0(i64 4, ptr %8) #14
  call void @llvm.lifetime.start.p0(i64 4, ptr %9) #14
  call void @llvm.lifetime.start.p0(i64 4, ptr %10) #14
  call void @llvm.lifetime.start.p0(i64 4, ptr %11) #14
  %12 = load ptr, ptr %5, align 8, !tbaa !26
  %13 = getelementptr inbounds i32, ptr %12, i64 0
  %14 = load i32, ptr %13, align 4, !tbaa !4
  store i32 %14, ptr %11, align 4, !tbaa !4
  %15 = load ptr, ptr %6, align 8, !tbaa !28
  %16 = load i32, ptr %11, align 4, !tbaa !4
  %17 = sext i32 %16 to i64
  %18 = getelementptr inbounds [3 x float], ptr %15, i64 %17
  %19 = getelementptr inbounds [3 x float], ptr %18, i64 0, i64 2
  %20 = load float, ptr %19, align 4, !tbaa !11
  store float %20, ptr %8, align 4, !tbaa !11
  store float 0.000000e+00, ptr %9, align 4, !tbaa !11
  store i32 1, ptr %10, align 4, !tbaa !4
  br label %21

21:                                               ; preds = %43, %3
  %22 = load i32, ptr %10, align 4, !tbaa !4
  %23 = load i32, ptr %4, align 4, !tbaa !4
  %24 = icmp slt i32 %22, %23
  br i1 %24, label %25, label %46

25:                                               ; preds = %21
  %26 = load ptr, ptr %5, align 8, !tbaa !26
  %27 = load i32, ptr %10, align 4, !tbaa !4
  %28 = sext i32 %27 to i64
  %29 = getelementptr inbounds i32, ptr %26, i64 %28
  %30 = load i32, ptr %29, align 4, !tbaa !4
  store i32 %30, ptr %11, align 4, !tbaa !4
  %31 = load ptr, ptr %6, align 8, !tbaa !28
  %32 = load i32, ptr %11, align 4, !tbaa !4
  %33 = sext i32 %32 to i64
  %34 = getelementptr inbounds [3 x float], ptr %31, i64 %33
  %35 = getelementptr inbounds [3 x float], ptr %34, i64 0, i64 2
  %36 = load float, ptr %35, align 4, !tbaa !11
  store float %36, ptr %7, align 4, !tbaa !11
  %37 = load float, ptr %7, align 4, !tbaa !11
  %38 = load float, ptr %8, align 4, !tbaa !11
  %39 = fsub float %37, %38
  %40 = load float, ptr %9, align 4, !tbaa !11
  %41 = fadd float %40, %39
  store float %41, ptr %9, align 4, !tbaa !11
  %42 = load float, ptr %7, align 4, !tbaa !11
  store float %42, ptr %8, align 4, !tbaa !11
  br label %43

43:                                               ; preds = %25
  %44 = load i32, ptr %10, align 4, !tbaa !4
  %45 = add nsw i32 %44, 1
  store i32 %45, ptr %10, align 4, !tbaa !4
  br label %21, !llvm.loop !45

46:                                               ; preds = %21
  %47 = load float, ptr %9, align 4, !tbaa !11
  %48 = fpext float %47 to double
  %49 = load i32, ptr %4, align 4, !tbaa !4
  %50 = sitofp i32 %49 to double
  %51 = fsub double %50, 1.000000e+00
  %52 = fdiv double %48, %51
  %53 = fptrunc double %52 to float
  call void @llvm.lifetime.end.p0(i64 4, ptr %11) #14
  call void @llvm.lifetime.end.p0(i64 4, ptr %10) #14
  call void @llvm.lifetime.end.p0(i64 4, ptr %9) #14
  call void @llvm.lifetime.end.p0(i64 4, ptr %8) #14
  call void @llvm.lifetime.end.p0(i64 4, ptr %7) #14
  ret float %53
}