; Function Attrs: mustprogress nofree norecurse nosync nounwind willreturn memory(argmem: read) uwtable
define noundef float @_Z4riseiPKiPA3_f(i32 noundef %0, ptr noundef readonly captures(none) %1, ptr noundef readonly captures(none) %2) local_unnamed_addr #2 {
  %4 = icmp sgt i32 %0, 1
  br i1 %4, label %.lr.ph.preheader, label %._crit_edge

.lr.ph.preheader:                                 ; preds = %3
  %5 = load i32, ptr %1, align 4, !tbaa !20
  %6 = sext i32 %5 to i64
  %7 = getelementptr inbounds [3 x float], ptr %2, i64 %6, i64 2
  %8 = load float, ptr %7, align 4, !tbaa !21
  %wide.trip.count = zext nneg i32 %0 to i64
  br label %.lr.ph

.lr.ph:                                           ; preds = %.lr.ph.preheader, %.lr.ph
  %indvars.iv = phi i64 [ 1, %.lr.ph.preheader ], [ %indvars.iv.next, %.lr.ph ]
  %.01519 = phi float [ 0.000000e+00, %.lr.ph.preheader ], [ %15, %.lr.ph ]
  %.01618 = phi float [ %8, %.lr.ph.preheader ], [ %13, %.lr.ph ]
  %9 = getelementptr inbounds nuw i32, ptr %1, i64 %indvars.iv
  %10 = load i32, ptr %9, align 4, !tbaa !20
  %11 = sext i32 %10 to i64
  %12 = getelementptr inbounds [3 x float], ptr %2, i64 %11, i64 2
  %13 = load float, ptr %12, align 4, !tbaa !21
  %14 = fsub float %13, %.01618
  %15 = fadd float %.01519, %14
  %indvars.iv.next = add nuw nsw i64 %indvars.iv, 1
  %exitcond.not = icmp eq i64 %indvars.iv.next, %wide.trip.count
  br i1 %exitcond.not, label %._crit_edge.loopexit, label %.lr.ph, !llvm.loop !31

._crit_edge.loopexit:                             ; preds = %.lr.ph
  %16 = fpext float %15 to double
  br label %._crit_edge

._crit_edge:                                      ; preds = %._crit_edge.loopexit, %3
  %.015.lcssa = phi double [ 0.000000e+00, %3 ], [ %16, %._crit_edge.loopexit ]
  %17 = sitofp i32 %0 to double
  %18 = fadd double %17, -1.000000e+00
  %19 = fdiv double %.015.lcssa, %18
  %20 = fptrunc double %19 to float
  ret float %20
}